; Function Attrs: mustprogress nounwind uwtable
define noundef ptr @proj_get_id_auth_name(ptr noundef readonly %0, i32 noundef %1) local_unnamed_addr #0 {
  %.not = icmp eq ptr %0, null
  br i1 %.not, label %.thread, label %3

3:                                                ; preds = %2
  %4 = getelementptr inbounds i8, ptr %0, i64 640
  %5 = load ptr, ptr %4, align 8
  %6 = icmp eq ptr %5, null
  br i1 %6, label %.thread, label %7

7:                                                ; preds = %3
  %8 = tail call ptr @__dynamic_cast(ptr nonnull %5, ptr nonnull @_ZTIN5osgeo4proj4util10BaseObjectE, ptr nonnull @_ZTIN5osgeo4proj6common16IdentifiedObjectE, i64 0) #27
  %.not14 = icmp eq ptr %8, null
  br i1 %.not14, label %.thread, label %9

9:                                                ; preds = %7
  %10 = tail call noundef nonnull align 8 dereferenceable(24) ptr @_ZNK5osgeo4proj6common16IdentifiedObject11identifiersEv(ptr noundef nonnull align 8 dereferenceable(40) %8) #32
  %11 = sext i32 %1 to i64
  %12 = getelementptr inbounds i8, ptr %10, i64 8
  %13 = load ptr, ptr %12, align 8
  %14 = load ptr, ptr %10, align 8
  %15 = ptrtoint ptr %13 to i64
  %16 = ptrtoint ptr %14 to i64
  %17 = sub i64 %15, %16
  %18 = ashr exact i64 %17, 4
  %.not15 = icmp ugt i64 %18, %11
  br i1 %.not15, label %19, label %.thread

19:                                               ; preds = %9
  %20 = getelementptr inbounds %"class.dropbox::oxygen::nn.240", ptr %14, i64 %11
  %21 = load ptr, ptr %20, align 8
  %22 = tail call noundef nonnull align 8 dereferenceable(40) ptr @_ZNK5osgeo4proj8metadata10Identifier9codeSpaceB5cxx11Ev(ptr noundef nonnull align 8 dereferenceable(40) %21) #32
  %23 = load i8, ptr %22, align 8
  %24 = trunc i8 %23 to i1
  br i1 %24, label %25, label %.thread

25:                                               ; preds = %19
  %26 = getelementptr inbounds i8, ptr %22, i64 8
  %27 = tail call noundef ptr @_ZNKSt7__cxx1112basic_stringIcSt11char_traitsIcESaIcEE5c_strEv(ptr noundef nonnull align 8 dereferenceable(32) %26) #27
  br label %.thread

.thread:                                          ; preds = %3, %19, %9, %7, %2, %25
  %.0 = phi ptr [ %27, %25 ], [ null, %2 ], [ null, %7 ], [ null, %9 ], [ null, %19 ], [ null, %3 ]
  ret ptr %.0
}